; Function Attrs: mustprogress nofree norecurse nosync nounwind willreturn memory(argmem: readwrite) uwtable
define void @Kit_TruthCopy_64bit(ptr noundef writeonly captures(none) %0, ptr noundef readonly captures(none) %1, i32 noundef %2) local_unnamed_addr #6 {
  %4 = icmp slt i32 %2, 7
  %5 = add nsw i32 %2, -6
  %6 = shl nuw i32 1, %5
  %7 = select i1 %4, i32 1, i32 %6
  %8 = sext i32 %7 to i64
  %9 = shl nsw i64 %8, 3
  tail call void @llvm.memcpy.p0.p0.i64(ptr noundef nonnull align 8 dereferenceable(1) %0, ptr noundef nonnull align 8 dereferenceable(1) %1, i64 %9, i1 false)
  ret void
}